; Function Attrs: nounwind uwtable
define hidden void @zif_is_finite(ptr noundef %0, ptr nocapture noundef writeonly %1) local_unnamed_addr #0 {
  %3 = alloca double, align 8
  %4 = getelementptr inbounds i8, ptr %0, i64 44
  %5 = load i32, ptr %4, align 4
  %cond = icmp eq i32 %5, 1
  br i1 %cond, label %7, label %6

6:                                                ; preds = %2
  tail call void @zend_wrong_parameters_count_error(i32 noundef 1, i32 noundef 1) #15
  br label %.thread77

7:                                                ; preds = %2
  %8 = getelementptr inbounds i8, ptr %0, i64 80
  %9 = getelementptr inbounds i8, ptr %0, i64 88
  %10 = load i8, ptr %9, align 8
  %11 = icmp eq i8 %10, 5
  br i1 %11, label %.thread70, label %12

12:                                               ; preds = %7
  %13 = call zeroext i1 @zend_parse_arg_double_slow(ptr noundef nonnull %8, ptr noundef nonnull %3, i32 noundef 1) #15
  %.fr = freeze i1 %13
  br i1 %.fr, label %.thread70, label %.thread77

.thread77:                                        ; preds = %12, %6
  %.086 = phi i32 [ 1, %6 ], [ 9, %12 ]
  %.04785 = phi i32 [ 0, %6 ], [ 1, %12 ]
  %.04884 = phi i32 [ 0, %6 ], [ 20, %12 ]
  %.04983 = phi ptr [ null, %6 ], [ %8, %12 ]
  call void @zend_wrong_parameter_error(i32 noundef %.086, i32 noundef %.04785, ptr noundef null, i32 noundef %.04884, ptr noundef %.04983) #15
  br label %19

.thread70:                                        ; preds = %12, %7
  %.in = phi ptr [ %8, %7 ], [ %3, %12 ]
  %14 = load double, ptr %.in, align 8
  %15 = call double @llvm.fabs.f64(double %14)
  %16 = fcmp one double %15, 0x7FF0000000000000
  %17 = select i1 %16, i32 3, i32 2
  %18 = getelementptr inbounds i8, ptr %1, i64 8
  store i32 %17, ptr %18, align 8
  br label %19

19:                                               ; preds = %.thread70, %.thread77
  ret void
}